; Function Attrs: mustprogress nofree norecurse nosync nounwind willreturn memory(argmem: read) uwtable
define range(i32 0, 2) i32 @SCT_is_complete(ptr noundef readonly captures(none) %0) local_unnamed_addr #4 {
  %2 = load i32, ptr %0, align 8, !tbaa !11
  switch i32 %2, label %20 [
    i32 -1, label %SCT_signature_is_complete.exit
    i32 0, label %3
  ]

3:                                                ; preds = %1
  %4 = getelementptr inbounds nuw i8, ptr %0, i64 24
  %5 = load ptr, ptr %4, align 8, !tbaa !12
  %.not = icmp eq ptr %5, null
  br i1 %.not, label %SCT_signature_is_complete.exit, label %6

6:                                                ; preds = %3
  %7 = getelementptr inbounds nuw i8, ptr %0, i64 64
  %8 = load i8, ptr %7, align 8, !tbaa !19
  %9 = icmp eq i8 %8, 4
  br i1 %9, label %10, label %SCT_signature_is_complete.exit

10:                                               ; preds = %6
  %11 = getelementptr inbounds nuw i8, ptr %0, i64 65
  %12 = load i8, ptr %11, align 1, !tbaa !20
  %13 = and i8 %12, -3
  %or.cond.not.i = icmp eq i8 %13, 1
  br i1 %or.cond.not.i, label %SCT_get_signature_nid.exit.thread6.i, label %SCT_signature_is_complete.exit

SCT_get_signature_nid.exit.thread6.i:             ; preds = %10
  %14 = getelementptr inbounds nuw i8, ptr %0, i64 72
  %15 = load ptr, ptr %14, align 8, !tbaa !14
  %.not3.i = icmp eq ptr %15, null
  br i1 %.not3.i, label %SCT_signature_is_complete.exit, label %16

16:                                               ; preds = %SCT_get_signature_nid.exit.thread6.i
  %17 = getelementptr inbounds nuw i8, ptr %0, i64 80
  %18 = load i64, ptr %17, align 8, !tbaa !22
  %19 = icmp ne i64 %18, 0
  br label %SCT_signature_is_complete.exit

20:                                               ; preds = %1
  %21 = getelementptr inbounds nuw i8, ptr %0, i64 8
  %22 = load ptr, ptr %21, align 8, !tbaa !15
  %23 = icmp ne ptr %22, null
  br label %SCT_signature_is_complete.exit

SCT_signature_is_complete.exit:                   ; preds = %16, %SCT_get_signature_nid.exit.thread6.i, %10, %6, %3, %1, %20
  %.0.shrunk = phi i1 [ %23, %20 ], [ false, %1 ], [ false, %3 ], [ false, %SCT_get_signature_nid.exit.thread6.i ], [ %19, %16 ], [ false, %6 ], [ false, %10 ]
  %.0 = zext i1 %.0.shrunk to i32
  ret i32 %.0
}